; Function Attrs: mustprogress nofree norecurse nosync nounwind willreturn memory(read, inaccessiblemem: none) uwtable
define noundef float @_ZNK12b2WheelJoint19GetJointTranslationEv(ptr nocapture noundef nonnull readonly align 8 dereferenceable(308) %this) local_unnamed_addr #6 align 2 {
entry:
  %m_bodyA = getelementptr inbounds i8, ptr %this, i64 96
  %0 = load ptr, ptr %m_bodyA, align 8
  %m_bodyB = getelementptr inbounds i8, ptr %this, i64 104
  %1 = load ptr, ptr %m_bodyB, align 8
  %m_localAnchorA = getelementptr inbounds i8, ptr %this, i64 128
  %m_xf.i = getelementptr inbounds i8, ptr %0, i64 12
  %q.i.i = getelementptr inbounds i8, ptr %0, i64 20
  %c.i.i = getelementptr inbounds i8, ptr %0, i64 24
  %2 = load float, ptr %c.i.i, align 4
  %3 = load float, ptr %m_localAnchorA, align 8
  %4 = load float, ptr %q.i.i, align 4
  %y.i.i = getelementptr inbounds i8, ptr %this, i64 132
  %5 = load float, ptr %y.i.i, align 4
  %6 = load float, ptr %m_xf.i, align 4
  %y14.i.i = getelementptr inbounds i8, ptr %0, i64 16
  %7 = load float, ptr %y14.i.i, align 4
  %m_localAnchorB = getelementptr inbounds i8, ptr %this, i64 136
  %m_xf.i2 = getelementptr inbounds i8, ptr %1, i64 12
  %q.i.i3 = getelementptr inbounds i8, ptr %1, i64 20
  %c.i.i4 = getelementptr inbounds i8, ptr %1, i64 24
  %8 = load float, ptr %c.i.i4, align 4
  %9 = load <4 x float>, ptr %m_localAnchorB, align 8
  %10 = shufflevector <4 x float> %9, <4 x float> poison, <2 x i32> <i32 0, i32 poison>
  %11 = load float, ptr %q.i.i3, align 4
  %y.i.i5 = getelementptr inbounds i8, ptr %this, i64 140
  %12 = load <4 x float>, ptr %y.i.i5, align 4
  %13 = shufflevector <4 x float> %12, <4 x float> poison, <2 x i32> <i32 0, i32 poison>
  %14 = load float, ptr %m_xf.i2, align 4
  %15 = insertelement <2 x float> poison, float %11, i64 0
  %16 = insertelement <2 x float> %15, float %4, i64 1
  %17 = fneg <2 x float> %16
  %18 = insertelement <2 x float> %13, float %5, i64 1
  %19 = fmul <2 x float> %18, %17
  %20 = insertelement <2 x float> poison, float %8, i64 0
  %21 = insertelement <2 x float> %20, float %2, i64 1
  %22 = insertelement <2 x float> %10, float %3, i64 1
  %23 = tail call <2 x float> @llvm.fmuladd.v2f32(<2 x float> %21, <2 x float> %22, <2 x float> %19)
  %24 = insertelement <2 x float> poison, float %14, i64 0
  %25 = insertelement <2 x float> %24, float %6, i64 1
  %26 = fadd <2 x float> %25, %23
  %y14.i.i9 = getelementptr inbounds i8, ptr %1, i64 16
  %27 = load float, ptr %y14.i.i9, align 4
  %28 = fmul <2 x float> %21, %18
  %29 = tail call <2 x float> @llvm.fmuladd.v2f32(<2 x float> %16, <2 x float> %22, <2 x float> %28)
  %30 = insertelement <2 x float> poison, float %27, i64 0
  %31 = insertelement <2 x float> %30, float %7, i64 1
  %32 = fadd <2 x float> %29, %31
  %shift = shufflevector <2 x float> %26, <2 x float> poison, <2 x i32> <i32 1, i32 poison>
  %33 = fsub <2 x float> %26, %shift
  %sub.i = extractelement <2 x float> %33, i64 0
  %shift20 = shufflevector <2 x float> %32, <2 x float> poison, <2 x i32> <i32 1, i32 poison>
  %34 = fsub <2 x float> %32, %shift20
  %sub3.i = extractelement <2 x float> %34, i64 0
  %m_localXAxisA = getelementptr inbounds i8, ptr %this, i64 144
  %35 = load float, ptr %m_localXAxisA, align 8
  %y.i.i14 = getelementptr inbounds i8, ptr %this, i64 148
  %36 = load float, ptr %y.i.i14, align 4
  %37 = extractelement <2 x float> %17, i64 1
  %neg.i.i15 = fmul float %36, %37
  %38 = tail call float @llvm.fmuladd.f32(float %2, float %35, float %neg.i.i15)
  %mul6.i.i = fmul float %2, %36
  %39 = tail call float @llvm.fmuladd.f32(float %4, float %35, float %mul6.i.i)
  %mul3.i = fmul float %sub3.i, %39
  %40 = tail call noundef float @llvm.fmuladd.f32(float %sub.i, float %38, float %mul3.i)
  ret float %40
}